; Function Attrs: nounwind uwtable
define range(i32 -1, 2) i32 @ossl_quic_do_handshake(ptr noundef %0) local_unnamed_addr #0 {
  %2 = alloca %struct.qctx_st, align 8
  call void @llvm.lifetime.start.p0(i64 56, ptr nonnull %2) #12
  %3 = call fastcc range(i32 0, 2) i32 @expect_quic_as(ptr noundef %0, ptr noundef nonnull %2, i32 noundef 3)
  %.not = icmp eq i32 %3, 0
  br i1 %.not, label %23, label %4

4:                                                ; preds = %1
  %.val.i = load ptr, ptr %2, align 8, !tbaa !157
  %5 = getelementptr i8, ptr %.val.i, i64 88
  %.val.val.i = load ptr, ptr %5, align 8, !tbaa !143
  %6 = call ptr @ossl_quic_engine_get0_mutex(ptr noundef %.val.val.i) #12
  call void @ossl_crypto_mutex_lock(ptr noundef %6) #12
  %7 = getelementptr inbounds nuw i8, ptr %2, i64 52
  store i32 1, ptr %7, align 4, !tbaa !126
  %8 = getelementptr inbounds nuw i8, ptr %2, i64 40
  %9 = load i32, ptr %8, align 8, !tbaa !129
  %.not9.i.i = icmp eq i32 %9, 0
  br i1 %.not9.i.i, label %15, label %10

10:                                               ; preds = %4
  %11 = getelementptr inbounds nuw i8, ptr %2, i64 32
  %12 = load ptr, ptr %11, align 8, !tbaa !130
  %.not10.i.i = icmp eq ptr %12, null
  br i1 %.not10.i.i, label %qctx_lock_for_io.exit, label %13

13:                                               ; preds = %10
  %14 = getelementptr inbounds nuw i8, ptr %12, i64 184
  store i32 0, ptr %14, align 8, !tbaa !131
  br label %qctx_lock_for_io.exit

15:                                               ; preds = %4
  %16 = getelementptr inbounds nuw i8, ptr %2, i64 24
  %17 = load ptr, ptr %16, align 8, !tbaa !134
  %.not12.i.i = icmp eq ptr %17, null
  br i1 %.not12.i.i, label %qctx_lock_for_io.exit, label %18

18:                                               ; preds = %15
  %19 = getelementptr inbounds nuw i8, ptr %17, i64 376
  store i32 0, ptr %19, align 8, !tbaa !123
  br label %qctx_lock_for_io.exit

qctx_lock_for_io.exit:                            ; preds = %10, %13, %15, %18
  %20 = call fastcc i32 @quic_do_handshake(ptr noundef %2)
  %.val = load ptr, ptr %2, align 8, !tbaa !157
  %21 = getelementptr i8, ptr %.val, i64 88
  %.val.val = load ptr, ptr %21, align 8, !tbaa !143
  %22 = call ptr @ossl_quic_engine_get0_mutex(ptr noundef %.val.val) #12
  call void @ossl_crypto_mutex_unlock(ptr noundef %22) #12
  br label %23

23:                                               ; preds = %1, %qctx_lock_for_io.exit
  %.0 = phi i32 [ %20, %qctx_lock_for_io.exit ], [ 0, %1 ]
  call void @llvm.lifetime.end.p0(i64 56, ptr nonnull %2) #12
  ret i32 %.0
}